; Function Attrs: nounwind uwtable
define dso_local ptr @GetErrorContextStack() local_unnamed_addr #3 {
  %1 = load i32, ptr @recursion_depth, align 4
  %2 = add i32 %1, 1
  store i32 %2, ptr @recursion_depth, align 4
  %3 = load i32, ptr @errordata_stack_depth, align 4
  %4 = add i32 %3, 1
  store i32 %4, ptr @errordata_stack_depth, align 4
  %5 = icmp sgt i32 %4, 4
  br i1 %5, label %6, label %get_error_stack_entry.exit, !prof !8

6:                                                ; preds = %0
  store i32 -1, ptr @errordata_stack_depth, align 4
  %7 = tail call zeroext i1 @errstart_cold(i32 noundef 23, ptr noundef null) #33
  tail call void @llvm.assume(i1 %7)
  %8 = tail call i32 (ptr, ...) @errmsg_internal(ptr noundef nonnull @.str.46)
  tail call void @errfinish(ptr noundef nonnull @.str.2, i32 noundef 761, ptr noundef nonnull @__func__.get_error_stack_entry)
  unreachable

get_error_stack_entry.exit:                       ; preds = %0
  %9 = sext i32 %4 to i64
  %10 = getelementptr inbounds [5 x %struct.ErrorData], ptr @errordata, i64 0, i64 %9
  tail call void @llvm.memset.p0.i64(ptr noundef nonnull align 8 dereferenceable(184) %10, i8 0, i64 184, i1 false)
  %11 = tail call ptr @__errno_location() #34
  %12 = load i32, ptr %11, align 4
  %13 = getelementptr inbounds nuw i8, ptr %10, i64 168
  store i32 %12, ptr %13, align 8
  %14 = load ptr, ptr @CurrentMemoryContext, align 8
  %15 = getelementptr inbounds nuw i8, ptr %10, i64 176
  store ptr %14, ptr %15, align 8
  %.06 = load ptr, ptr @error_context_stack, align 8
  %.not7 = icmp eq ptr %.06, null
  br i1 %.not7, label %._crit_edge, label %.lr.ph

.lr.ph:                                           ; preds = %get_error_stack_entry.exit, %.lr.ph
  %.08 = phi ptr [ %.0, %.lr.ph ], [ %.06, %get_error_stack_entry.exit ]
  %16 = getelementptr inbounds nuw i8, ptr %.08, i64 8
  %17 = load ptr, ptr %16, align 8
  %18 = getelementptr inbounds nuw i8, ptr %.08, i64 16
  %19 = load ptr, ptr %18, align 8
  tail call void %17(ptr noundef %19) #32
  %.0 = load ptr, ptr %.08, align 8
  %.not = icmp eq ptr %.0, null
  br i1 %.not, label %._crit_edge.loopexit, label %.lr.ph, !llvm.loop !74

._crit_edge.loopexit:                             ; preds = %.lr.ph
  %.pre = load i32, ptr @errordata_stack_depth, align 4
  %.pre9 = load i32, ptr @recursion_depth, align 4
  %.phi.trans.insert = getelementptr inbounds nuw i8, ptr %10, i64 88
  %.pre10 = load ptr, ptr %.phi.trans.insert, align 8
  %20 = add i32 %.pre, -1
  %21 = add i32 %.pre9, -1
  br label %._crit_edge

._crit_edge:                                      ; preds = %._crit_edge.loopexit, %get_error_stack_entry.exit
  %22 = phi ptr [ %.pre10, %._crit_edge.loopexit ], [ null, %get_error_stack_entry.exit ]
  %23 = phi i32 [ %21, %._crit_edge.loopexit ], [ %1, %get_error_stack_entry.exit ]
  %24 = phi i32 [ %20, %._crit_edge.loopexit ], [ %3, %get_error_stack_entry.exit ]
  store i32 %24, ptr @errordata_stack_depth, align 4
  store i32 %23, ptr @recursion_depth, align 4
  ret ptr %22
}